target datalayout = "e-m:e-p270:32:32-p271:32:32-p272:64:64-i64:64-i128:128-f80:128-n8:16:32:64-S128"
target triple = "x86_64-pc-linux-gnu"

%struct.RelationData = type { %struct.RelFileLocator, ptr, i32, i32, i8, i8, i8, i8, i8, i32, i32, i32, i32, ptr, ptr, i32, %struct.LockInfoData, ptr, ptr, ptr, ptr, ptr, i8, ptr, ptr, ptr, ptr, ptr, ptr, i32, ptr, i8, ptr, ptr, i32, i8, i32, ptr, i8, ptr, ptr, ptr, ptr, ptr, ptr, ptr, i32, ptr, ptr, ptr, ptr, ptr, ptr, ptr, ptr, ptr, ptr, ptr, ptr, ptr, ptr, ptr, ptr, ptr, ptr, ptr, i32, i8, ptr }
%struct.RelFileLocator = type { i32, i32, i32 }
%struct.LockInfoData = type { %struct.LockRelId }
%struct.LockRelId = type { i32, i32 }

@eoxact_list_overflowed = internal global i8 0, align 1
@eoxact_list_len = internal global i32 0, align 4
@eoxact_list = internal global [32 x i32] zeroinitializer, align 16

; Function Attrs: nounwind uwtable
define dso_local void @RelationAssumeNewRelfilelocator(ptr noundef %0) #0 {
  %2 = alloca ptr, align 8
  store ptr %0, ptr %2, align 8
  %3 = call i32 @GetCurrentSubTransactionId()
  %4 = load ptr, ptr %2, align 8
  %5 = getelementptr inbounds nuw %struct.RelationData, ptr %4, i32 0, i32 10
  store i32 %3, ptr %5, align 4
  %6 = load ptr, ptr %2, align 8
  %7 = getelementptr inbounds nuw %struct.RelationData, ptr %6, i32 0, i32 11
  %8 = load i32, ptr %7, align 8
  %9 = icmp eq i32 %8, 0
  br i1 %9, label %10, label %16

10:                                               ; preds = %1
  %11 = load ptr, ptr %2, align 8
  %12 = getelementptr inbounds nuw %struct.RelationData, ptr %11, i32 0, i32 10
  %13 = load i32, ptr %12, align 4
  %14 = load ptr, ptr %2, align 8
  %15 = getelementptr inbounds nuw %struct.RelationData, ptr %14, i32 0, i32 11
  store i32 %13, ptr %15, align 8
  br label %16

16:                                               ; preds = %10, %1
  br label %17

17:                                               ; preds = %16
  %18 = load i32, ptr @eoxact_list_len, align 4
  %19 = icmp slt i32 %18, 32
  br i1 %19, label %20, label %28

20:                                               ; preds = %17
  %21 = load ptr, ptr %2, align 8
  %22 = getelementptr inbounds nuw %struct.RelationData, ptr %21, i32 0, i32 15
  %23 = load i32, ptr %22, align 8
  %24 = load i32, ptr @eoxact_list_len, align 4
  %25 = add i32 %24, 1
  store i32 %25, ptr @eoxact_list_len, align 4
  %26 = sext i32 %24 to i64
  %27 = getelementptr inbounds [32 x i32], ptr @eoxact_list, i64 0, i64 %26
  store i32 %23, ptr %27, align 4
  br label %29

28:                                               ; preds = %17
  store i8 1, ptr @eoxact_list_overflowed, align 1
  br label %29

29:                                               ; preds = %28, %20
  br label %30

30:                                               ; preds = %29
  ret void
}