; Function Attrs: nounwind uwtable
define dso_local void @RelationAssumeNewRelfilelocator(ptr noundef captures(none) initializes((44, 48)) %0) local_unnamed_addr #0 {
  %2 = tail call i32 @GetCurrentSubTransactionId() #13
  %3 = getelementptr inbounds nuw i8, ptr %0, i64 44
  store i32 %2, ptr %3, align 4
  %4 = getelementptr inbounds nuw i8, ptr %0, i64 48
  %5 = load i32, ptr %4, align 8
  %6 = icmp eq i32 %5, 0
  br i1 %6, label %7, label %8

7:                                                ; preds = %1
  store i32 %2, ptr %4, align 8
  br label %8

8:                                                ; preds = %1, %7
  %9 = load i32, ptr @eoxact_list_len, align 4
  %10 = icmp slt i32 %9, 32
  br i1 %10, label %11, label %17

11:                                               ; preds = %8
  %12 = getelementptr inbounds nuw i8, ptr %0, i64 72
  %13 = load i32, ptr %12, align 8
  %14 = add nsw i32 %9, 1
  store i32 %14, ptr @eoxact_list_len, align 4
  %15 = sext i32 %9 to i64
  %16 = getelementptr inbounds [32 x i32], ptr @eoxact_list, i64 0, i64 %15
  store i32 %13, ptr %16, align 4
  br label %18

17:                                               ; preds = %8
  store i1 true, ptr @eoxact_list_overflowed, align 1
  br label %18

18:                                               ; preds = %11, %17
  ret void
}